target datalayout = "e-m:e-p270:32:32-p271:32:32-p272:64:64-i64:64-i128:128-f80:128-n8:16:32:64-S128"
target triple = "x86_64-pc-linux-gnu"

%struct._variable = type { ptr, ptr, ptr, ptr, ptr }

@.str.12 = private unnamed_addr constant [28 x i8] c"invalid variable name: \22%s\22\00", align 1
@.str.14 = private unnamed_addr constant [64 x i8] c"ABCDEFGHIJKLMNOPQRSTUVWXYZabcdefghijklmnopqrstuvwxyz_0123456789\00", align 1

; Function Attrs: nounwind uwtable
define internal zeroext i1 @valid_variable_name(ptr noundef %0) #0 {
  %2 = alloca i1, align 1
  %3 = alloca ptr, align 8
  %4 = alloca ptr, align 8
  %5 = alloca i32, align 4
  store ptr %0, ptr %3, align 8
  call void @llvm.lifetime.start.p0(i64 8, ptr %4) #6
  %6 = load ptr, ptr %3, align 8
  store ptr %6, ptr %4, align 8
  %7 = load ptr, ptr %4, align 8
  %8 = load i8, ptr %7, align 1
  %9 = zext i8 %8 to i32
  %10 = icmp eq i32 %9, 0
  br i1 %10, label %11, label %12

11:                                               ; preds = %1
  store i1 false, ptr %2, align 1
  store i32 1, ptr %5, align 4
  br label %35

12:                                               ; preds = %1
  br label %13

13:                                               ; preds = %33, %12
  %14 = load ptr, ptr %4, align 8
  %15 = load i8, ptr %14, align 1
  %16 = icmp ne i8 %15, 0
  br i1 %16, label %17, label %34

17:                                               ; preds = %13
  %18 = load ptr, ptr %4, align 8
  %19 = load i8, ptr %18, align 1
  %20 = zext i8 %19 to i32
  %21 = and i32 %20, 128
  %22 = icmp ne i32 %21, 0
  br i1 %22, label %29, label %23

23:                                               ; preds = %17
  %24 = load ptr, ptr %4, align 8
  %25 = load i8, ptr %24, align 1
  %26 = zext i8 %25 to i32
  %27 = call ptr @strchr(ptr noundef @.str.14, i32 noundef %26) #7
  %28 = icmp ne ptr %27, null
  br i1 %28, label %29, label %32

29:                                               ; preds = %23, %17
  %30 = load ptr, ptr %4, align 8
  %31 = getelementptr inbounds nuw i8, ptr %30, i32 1
  store ptr %31, ptr %4, align 8
  br label %33

32:                                               ; preds = %23
  store i1 false, ptr %2, align 1
  store i32 1, ptr %5, align 4
  br label %35

33:                                               ; preds = %29
  br label %13, !llvm.loop !10

34:                                               ; preds = %13
  store i1 true, ptr %2, align 1
  store i32 1, ptr %5, align 4
  br label %35

35:                                               ; preds = %34, %32, %11
  call void @llvm.lifetime.end.p0(i64 8, ptr %4) #6
  %36 = load i1, ptr %2, align 1
  ret i1 %36
}

; Function Attrs: nounwind uwtable
define dso_local zeroext i1 @SetVariable(ptr noundef %0, ptr noundef %1, ptr noundef %2) #0 {
  %4 = alloca i1, align 1
  %5 = alloca ptr, align 8
  %6 = alloca ptr, align 8
  %7 = alloca ptr, align 8
  %8 = alloca ptr, align 8
  %9 = alloca ptr, align 8
  %10 = alloca i32, align 4
  %11 = alloca i32, align 4
  %12 = alloca ptr, align 8
  %13 = alloca i8, align 1
  store ptr %0, ptr %5, align 8
  store ptr %1, ptr %6, align 8
  store ptr %2, ptr %7, align 8
  call void @llvm.lifetime.start.p0(i64 8, ptr %8) #6
  call void @llvm.lifetime.start.p0(i64 8, ptr %9) #6
  %14 = load ptr, ptr %5, align 8
  %15 = icmp ne ptr %14, null
  br i1 %15, label %16, label %19

16:                                               ; preds = %3
  %17 = load ptr, ptr %6, align 8
  %18 = icmp ne ptr %17, null
  br i1 %18, label %20, label %19

19:                                               ; preds = %16, %3
  store i1 false, ptr %4, align 1
  store i32 1, ptr %10, align 4
  br label %154

20:                                               ; preds = %16
  %21 = load ptr, ptr %6, align 8
  %22 = call zeroext i1 @valid_variable_name(ptr noundef %21)
  br i1 %22, label %29, label %23

23:                                               ; preds = %20
  %24 = load ptr, ptr %7, align 8
  %25 = icmp ne ptr %24, null
  br i1 %25, label %27, label %26

26:                                               ; preds = %23
  store i1 true, ptr %4, align 1
  store i32 1, ptr %10, align 4
  br label %154

27:                                               ; preds = %23
  %28 = load ptr, ptr %6, align 8
  call void (i32, i32, ptr, ...) @pg_log_generic(i32 noundef 4, i32 noundef 0, ptr noundef @.str.12, ptr noundef %28)
  store i1 false, ptr %4, align 1
  store i32 1, ptr %10, align 4
  br label %154

29:                                               ; preds = %20
  %30 = load ptr, ptr %5, align 8
  store ptr %30, ptr %9, align 8
  %31 = load ptr, ptr %5, align 8
  %32 = getelementptr inbounds nuw %struct._variable, ptr %31, i32 0, i32 4
  %33 = load ptr, ptr %32, align 8
  store ptr %33, ptr %8, align 8
  br label %34

34:                                               ; preds = %123, %29
  %35 = load ptr, ptr %8, align 8
  %36 = icmp ne ptr %35, null
  br i1 %36, label %37, label %128

37:                                               ; preds = %34
  call void @llvm.lifetime.start.p0(i64 4, ptr %11) #6
  %38 = load ptr, ptr %8, align 8
  %39 = getelementptr inbounds nuw %struct._variable, ptr %38, i32 0, i32 0
  %40 = load ptr, ptr %39, align 8
  %41 = load ptr, ptr %6, align 8
  %42 = call i32 @strcmp(ptr noundef %40, ptr noundef %41) #7
  store i32 %42, ptr %11, align 4
  %43 = load i32, ptr %11, align 4
  %44 = icmp eq i32 %43, 0
  br i1 %44, label %45, label %115

45:                                               ; preds = %37
  call void @llvm.lifetime.start.p0(i64 8, ptr %12) #6
  %46 = load ptr, ptr %7, align 8
  %47 = icmp ne ptr %46, null
  br i1 %47, label %48, label %51

48:                                               ; preds = %45
  %49 = load ptr, ptr %7, align 8
  %50 = call ptr @pg_strdup(ptr noundef %49)
  br label %52

51:                                               ; preds = %45
  br label %52

52:                                               ; preds = %51, %48
  %53 = phi ptr [ %50, %48 ], [ null, %51 ]
  store ptr %53, ptr %12, align 8
  call void @llvm.lifetime.start.p0(i64 1, ptr %13) #6
  %54 = load ptr, ptr %8, align 8
  %55 = getelementptr inbounds nuw %struct._variable, ptr %54, i32 0, i32 2
  %56 = load ptr, ptr %55, align 8
  %57 = icmp ne ptr %56, null
  br i1 %57, label %58, label %64

58:                                               ; preds = %52
  %59 = load ptr, ptr %8, align 8
  %60 = getelementptr inbounds nuw %struct._variable, ptr %59, i32 0, i32 2
  %61 = load ptr, ptr %60, align 8
  %62 = load ptr, ptr %12, align 8
  %63 = call ptr %61(ptr noundef %62)
  store ptr %63, ptr %12, align 8
  br label %64

64:                                               ; preds = %58, %52
  %65 = load ptr, ptr %8, align 8
  %66 = getelementptr inbounds nuw %struct._variable, ptr %65, i32 0, i32 3
  %67 = load ptr, ptr %66, align 8
  %68 = icmp ne ptr %67, null
  br i1 %68, label %69, label %76

69:                                               ; preds = %64
  %70 = load ptr, ptr %8, align 8
  %71 = getelementptr inbounds nuw %struct._variable, ptr %70, i32 0, i32 3
  %72 = load ptr, ptr %71, align 8
  %73 = load ptr, ptr %12, align 8
  %74 = call zeroext i1 %72(ptr noundef %73)
  %75 = zext i1 %74 to i8
  store i8 %75, ptr %13, align 1
  br label %77

76:                                               ; preds = %64
  store i8 1, ptr %13, align 1
  br label %77

77:                                               ; preds = %76, %69
  %78 = load i8, ptr %13, align 1, !range !6, !noundef !7
  %79 = trunc i8 %78 to i1
  br i1 %79, label %80, label %110

80:                                               ; preds = %77
  %81 = load ptr, ptr %8, align 8
  %82 = getelementptr inbounds nuw %struct._variable, ptr %81, i32 0, i32 1
  %83 = load ptr, ptr %82, align 8
  call void @pg_free(ptr noundef %83)
  %84 = load ptr, ptr %12, align 8
  %85 = load ptr, ptr %8, align 8
  %86 = getelementptr inbounds nuw %struct._variable, ptr %85, i32 0, i32 1
  store ptr %84, ptr %86, align 8
  %87 = load ptr, ptr %12, align 8
  %88 = icmp eq ptr %87, null
  br i1 %88, label %89, label %109

89:                                               ; preds = %80
  %90 = load ptr, ptr %8, align 8
  %91 = getelementptr inbounds nuw %struct._variable, ptr %90, i32 0, i32 2
  %92 = load ptr, ptr %91, align 8
  %93 = icmp eq ptr %92, null
  br i1 %93, label %94, label %109

94:                                               ; preds = %89
  %95 = load ptr, ptr %8, align 8
  %96 = getelementptr inbounds nuw %struct._variable, ptr %95, i32 0, i32 3
  %97 = load ptr, ptr %96, align 8
  %98 = icmp eq ptr %97, null
  br i1 %98, label %99, label %109

99:                                               ; preds = %94
  %100 = load ptr, ptr %8, align 8
  %101 = getelementptr inbounds nuw %struct._variable, ptr %100, i32 0, i32 4
  %102 = load ptr, ptr %101, align 8
  %103 = load ptr, ptr %9, align 8
  %104 = getelementptr inbounds nuw %struct._variable, ptr %103, i32 0, i32 4
  store ptr %102, ptr %104, align 8
  %105 = load ptr, ptr %8, align 8
  %106 = getelementptr inbounds nuw %struct._variable, ptr %105, i32 0, i32 0
  %107 = load ptr, ptr %106, align 8
  call void @free(ptr noundef %107) #6
  %108 = load ptr, ptr %8, align 8
  call void @free(ptr noundef %108) #6
  br label %109

109:                                              ; preds = %99, %94, %89, %80
  br label %112

110:                                              ; preds = %77
  %111 = load ptr, ptr %12, align 8
  call void @pg_free(ptr noundef %111)
  br label %112

112:                                              ; preds = %110, %109
  %113 = load i8, ptr %13, align 1, !range !6, !noundef !7
  %114 = trunc i8 %113 to i1
  store i1 %114, ptr %4, align 1
  store i32 1, ptr %10, align 4
  call void @llvm.lifetime.end.p0(i64 1, ptr %13) #6
  call void @llvm.lifetime.end.p0(i64 8, ptr %12) #6
  br label %120

115:                                              ; preds = %37
  %116 = load i32, ptr %11, align 4
  %117 = icmp sgt i32 %116, 0
  br i1 %117, label %118, label %119

118:                                              ; preds = %115
  store i32 2, ptr %10, align 4
  br label %120

119:                                              ; preds = %115
  store i32 0, ptr %10, align 4
  br label %120

120:                                              ; preds = %119, %118, %112
  call void @llvm.lifetime.end.p0(i64 4, ptr %11) #6
  %121 = load i32, ptr %10, align 4
  switch i32 %121, label %154 [
    i32 0, label %122
    i32 2, label %128
  ]

122:                                              ; preds = %120
  br label %123

123:                                              ; preds = %122
  %124 = load ptr, ptr %8, align 8
  store ptr %124, ptr %9, align 8
  %125 = load ptr, ptr %8, align 8
  %126 = getelementptr inbounds nuw %struct._variable, ptr %125, i32 0, i32 4
  %127 = load ptr, ptr %126, align 8
  store ptr %127, ptr %8, align 8
  br label %34, !llvm.loop !9

128:                                              ; preds = %120, %34
  %129 = load ptr, ptr %7, align 8
  %130 = icmp ne ptr %129, null
  br i1 %130, label %131, label %153

131:                                              ; preds = %128
  %132 = call ptr @pg_malloc(i64 noundef 40)
  store ptr %132, ptr %8, align 8
  %133 = load ptr, ptr %6, align 8
  %134 = call ptr @pg_strdup(ptr noundef %133)
  %135 = load ptr, ptr %8, align 8
  %136 = getelementptr inbounds nuw %struct._variable, ptr %135, i32 0, i32 0
  store ptr %134, ptr %136, align 8
  %137 = load ptr, ptr %7, align 8
  %138 = call ptr @pg_strdup(ptr noundef %137)
  %139 = load ptr, ptr %8, align 8
  %140 = getelementptr inbounds nuw %struct._variable, ptr %139, i32 0, i32 1
  store ptr %138, ptr %140, align 8
  %141 = load ptr, ptr %8, align 8
  %142 = getelementptr inbounds nuw %struct._variable, ptr %141, i32 0, i32 2
  store ptr null, ptr %142, align 8
  %143 = load ptr, ptr %8, align 8
  %144 = getelementptr inbounds nuw %struct._variable, ptr %143, i32 0, i32 3
  store ptr null, ptr %144, align 8
  %145 = load ptr, ptr %9, align 8
  %146 = getelementptr inbounds nuw %struct._variable, ptr %145, i32 0, i32 4
  %147 = load ptr, ptr %146, align 8
  %148 = load ptr, ptr %8, align 8
  %149 = getelementptr inbounds nuw %struct._variable, ptr %148, i32 0, i32 4
  store ptr %147, ptr %149, align 8
  %150 = load ptr, ptr %8, align 8
  %151 = load ptr, ptr %9, align 8
  %152 = getelementptr inbounds nuw %struct._variable, ptr %151, i32 0, i32 4
  store ptr %150, ptr %152, align 8
  br label %153

153:                                              ; preds = %131, %128
  store i1 true, ptr %4, align 1
  store i32 1, ptr %10, align 4
  br label %154

154:                                              ; preds = %153, %120, %27, %26, %19
  call void @llvm.lifetime.end.p0(i64 8, ptr %9) #6
  call void @llvm.lifetime.end.p0(i64 8, ptr %8) #6
  %155 = load i1, ptr %4, align 1
  ret i1 %155
}