; Function Attrs: nounwind uwtable
define dso_local noundef zeroext i1 @SetVariable(ptr noundef captures(address_is_null) %0, ptr noundef %1, ptr noundef %2) local_unnamed_addr #0 {
  %4 = icmp ne ptr %0, null
  %5 = icmp ne ptr %1, null
  %or.cond = and i1 %4, %5
  br i1 %or.cond, label %6, label %.thread68

6:                                                ; preds = %3
  %7 = load i8, ptr %1, align 1
  %8 = icmp eq i8 %7, 0
  br i1 %8, label %.loopexit, label %.preheader.i

.preheader.i:                                     ; preds = %6, %12
  %.011.i = phi ptr [ %13, %12 ], [ %1, %6 ]
  %9 = phi i8 [ %.pr.i, %12 ], [ %7, %6 ]
  %.not9.i = icmp sgt i8 %9, -1
  br i1 %.not9.i, label %10, label %12

10:                                               ; preds = %.preheader.i
  %11 = zext nneg i8 %9 to i32
  %memchr.i = tail call ptr @memchr(ptr noundef nonnull dereferenceable(1) @.str.14, i32 %11, i64 64)
  %.not10.i = icmp eq ptr %memchr.i, null
  br i1 %.not10.i, label %.loopexit, label %12

12:                                               ; preds = %10, %.preheader.i
  %13 = getelementptr inbounds nuw i8, ptr %.011.i, i64 1
  %.pr.i = load i8, ptr %13, align 1
  %.not.i = icmp eq i8 %.pr.i, 0
  br i1 %.not.i, label %valid_variable_name.exit, label %.preheader.i, !llvm.loop !6

.loopexit:                                        ; preds = %10, %6
  %.not = icmp eq ptr %2, null
  br i1 %.not, label %.thread68, label %14

14:                                               ; preds = %.loopexit
  tail call void (i32, i32, ptr, ...) @pg_log_generic(i32 noundef 4, i32 noundef 0, ptr noundef nonnull @.str.12, ptr noundef nonnull %1) #11
  br label %.thread68

valid_variable_name.exit:                         ; preds = %12, %47
  %.051 = phi ptr [ %.052, %47 ], [ %0, %12 ]
  %.052.in = getelementptr inbounds nuw i8, ptr %.051, i64 32
  %.052 = load ptr, ptr %.052.in, align 8
  %.not60 = icmp eq ptr %.052, null
  br i1 %.not60, label %.thread71, label %15

15:                                               ; preds = %valid_variable_name.exit
  %16 = load ptr, ptr %.052, align 8
  %17 = tail call i32 @strcmp(ptr noundef nonnull dereferenceable(1) %16, ptr noundef nonnull dereferenceable(1) %1) #12
  %18 = icmp eq i32 %17, 0
  br i1 %18, label %19, label %47

19:                                               ; preds = %15
  %.052.in.le = getelementptr inbounds nuw i8, ptr %.051, i64 32
  %.not61 = icmp eq ptr %2, null
  br i1 %.not61, label %22, label %20

20:                                               ; preds = %19
  %21 = tail call ptr @pg_strdup(ptr noundef nonnull %2) #11
  br label %22

22:                                               ; preds = %19, %20
  %23 = phi ptr [ %21, %20 ], [ null, %19 ]
  %24 = getelementptr inbounds nuw i8, ptr %.052, i64 16
  %25 = load ptr, ptr %24, align 8
  %.not62 = icmp eq ptr %25, null
  br i1 %.not62, label %28, label %26

26:                                               ; preds = %22
  %27 = tail call ptr %25(ptr noundef %23) #11
  br label %28

28:                                               ; preds = %26, %22
  %.048 = phi ptr [ %27, %26 ], [ %23, %22 ]
  %29 = getelementptr inbounds nuw i8, ptr %.052, i64 24
  %30 = load ptr, ptr %29, align 8
  %.not63 = icmp eq ptr %30, null
  br i1 %.not63, label %.thread, label %31

31:                                               ; preds = %28
  %32 = tail call zeroext i1 %30(ptr noundef %.048) #11
  br i1 %32, label %.thread, label %46

.thread:                                          ; preds = %28, %31
  %33 = getelementptr inbounds nuw i8, ptr %.052, i64 8
  %34 = load ptr, ptr %33, align 8
  tail call void @pg_free(ptr noundef %34) #11
  store ptr %.048, ptr %33, align 8
  %35 = icmp eq ptr %.048, null
  br i1 %35, label %36, label %.thread68

36:                                               ; preds = %.thread
  %37 = load ptr, ptr %24, align 8
  %38 = icmp eq ptr %37, null
  br i1 %38, label %39, label %.thread68

39:                                               ; preds = %36
  %40 = load ptr, ptr %29, align 8
  %41 = icmp eq ptr %40, null
  br i1 %41, label %42, label %.thread68

42:                                               ; preds = %39
  %43 = getelementptr inbounds nuw i8, ptr %.052, i64 32
  %44 = load ptr, ptr %43, align 8
  store ptr %44, ptr %.052.in.le, align 8
  %45 = load ptr, ptr %.052, align 8
  tail call void @free(ptr noundef %45) #11
  tail call void @free(ptr noundef nonnull %.052) #11
  br label %.thread68

46:                                               ; preds = %31
  tail call void @pg_free(ptr noundef %.048) #11
  br label %.thread68

47:                                               ; preds = %15
  %48 = icmp sgt i32 %17, 0
  br i1 %48, label %.thread71, label %valid_variable_name.exit

.thread71:                                        ; preds = %47, %valid_variable_name.exit
  %.not64 = icmp eq ptr %2, null
  br i1 %.not64, label %.thread68, label %49

49:                                               ; preds = %.thread71
  %.052.in.le82 = getelementptr inbounds nuw i8, ptr %.051, i64 32
  %50 = tail call ptr @pg_malloc(i64 noundef 40) #11
  %51 = tail call ptr @pg_strdup(ptr noundef nonnull %1) #11
  store ptr %51, ptr %50, align 8
  %52 = tail call ptr @pg_strdup(ptr noundef nonnull %2) #11
  %53 = getelementptr inbounds nuw i8, ptr %50, i64 8
  store ptr %52, ptr %53, align 8
  %54 = getelementptr inbounds nuw i8, ptr %50, i64 16
  tail call void @llvm.memset.p0.i64(ptr noundef nonnull align 8 dereferenceable(16) %54, i8 0, i64 16, i1 false)
  %55 = load ptr, ptr %.052.in.le82, align 8
  %56 = getelementptr inbounds nuw i8, ptr %50, i64 32
  store ptr %55, ptr %56, align 8
  store ptr %50, ptr %.052.in.le82, align 8
  br label %.thread68

.thread68:                                        ; preds = %46, %42, %39, %36, %.thread, %.thread71, %49, %.loopexit, %3, %14
  %.049 = phi i1 [ false, %14 ], [ false, %3 ], [ true, %.loopexit ], [ true, %49 ], [ true, %.thread71 ], [ false, %46 ], [ true, %42 ], [ true, %39 ], [ true, %36 ], [ true, %.thread ]
  ret i1 %.049
}